target datalayout = "e-m:e-p270:32:32-p271:32:32-p272:64:64-i64:64-i128:128-f80:128-n8:16:32:64-S128"
target triple = "x86_64-pc-linux-gnu"

; Function Attrs: mustprogress nounwind uwtable
define noundef i32 @_ZN4Cube9FaceIndexEiii(i32 noundef %0, i32 noundef %1, i32 noundef %2) #1 align 2 {
  %4 = alloca i32, align 4
  %5 = alloca i32, align 4
  %6 = alloca i32, align 4
  %7 = alloca i32, align 4
  store i32 %0, ptr %5, align 4
  store i32 %1, ptr %6, align 4
  store i32 %2, ptr %7, align 4
  %8 = load i32, ptr %5, align 4
  %9 = icmp slt i32 %8, 0
  br i1 %9, label %10, label %11

10:                                               ; preds = %3
  store i32 0, ptr %4, align 4
  br label %32

11:                                               ; preds = %3
  %12 = load i32, ptr %5, align 4
  %13 = icmp sgt i32 %12, 0
  br i1 %13, label %14, label %15

14:                                               ; preds = %11
  store i32 1, ptr %4, align 4
  br label %32

15:                                               ; preds = %11
  %16 = load i32, ptr %6, align 4
  %17 = icmp slt i32 %16, 0
  br i1 %17, label %18, label %19

18:                                               ; preds = %15
  store i32 2, ptr %4, align 4
  br label %32

19:                                               ; preds = %15
  %20 = load i32, ptr %6, align 4
  %21 = icmp sgt i32 %20, 0
  br i1 %21, label %22, label %23

22:                                               ; preds = %19
  store i32 3, ptr %4, align 4
  br label %32

23:                                               ; preds = %19
  %24 = load i32, ptr %7, align 4
  %25 = icmp slt i32 %24, 0
  br i1 %25, label %26, label %27

26:                                               ; preds = %23
  store i32 4, ptr %4, align 4
  br label %32

27:                                               ; preds = %23
  %28 = load i32, ptr %7, align 4
  %29 = icmp sgt i32 %28, 0
  br i1 %29, label %30, label %31

30:                                               ; preds = %27
  store i32 5, ptr %4, align 4
  br label %32

31:                                               ; preds = %27
  store i32 -1, ptr %4, align 4
  br label %32

32:                                               ; preds = %31, %30, %26, %22, %18, %14, %10
  %33 = load i32, ptr %4, align 4
  ret i32 %33
}