; Function Attrs: mustprogress nofree norecurse nosync nounwind willreturn memory(none) uwtable
define noundef range(i32 -1, 6) i32 @_ZN4Cube9FaceIndexEiii(i32 noundef %0, i32 noundef %1, i32 noundef %2) local_unnamed_addr #0 align 2 {
  %4 = icmp slt i32 %0, 0
  br i1 %4, label %12, label %5

5:                                                ; preds = %3
  %.not = icmp eq i32 %0, 0
  br i1 %.not, label %6, label %12

6:                                                ; preds = %5
  %7 = icmp slt i32 %1, 0
  br i1 %7, label %12, label %8

8:                                                ; preds = %6
  %.not10 = icmp eq i32 %1, 0
  br i1 %.not10, label %9, label %12

9:                                                ; preds = %8
  %10 = icmp slt i32 %2, 0
  br i1 %10, label %12, label %11

11:                                               ; preds = %9
  %.not11 = icmp eq i32 %2, 0
  %. = select i1 %.not11, i32 -1, i32 5
  br label %12

12:                                               ; preds = %11, %9, %8, %6, %5, %3
  %.0 = phi i32 [ 0, %3 ], [ 1, %5 ], [ 2, %6 ], [ 3, %8 ], [ 4, %9 ], [ %., %11 ]
  ret i32 %.0
}